target datalayout = "e-m:e-p270:32:32-p271:32:32-p272:64:64-i64:64-i128:128-f80:128-n8:16:32:64-S128"
target triple = "x86_64-pc-linux-gnu"

%"class.icu_77::DateTimeMatcher" = type { ptr, %"class.icu_77::PtnSkeleton" }
%"class.icu_77::PtnSkeleton" = type <{ ptr, [16 x i32], %"class.icu_77::SkeletonFields", %"class.icu_77::SkeletonFields", i8, [7 x i8] }>
%"class.icu_77::SkeletonFields" = type { [16 x i8], [16 x i8] }

; Function Attrs: mustprogress nounwind uwtable
define void @_ZN6icu_7714SkeletonFields8copyFromERKS0_(ptr noundef nonnull align 1 dereferenceable(32) %0, ptr noundef nonnull align 1 dereferenceable(32) %1) #0 align 2 {
  %3 = alloca ptr, align 8
  %4 = alloca ptr, align 8
  store ptr %0, ptr %3, align 8, !tbaa !208
  store ptr %1, ptr %4, align 8, !tbaa !208
  %5 = load ptr, ptr %3, align 8
  br label %6

6:                                                ; preds = %2
  %7 = getelementptr inbounds nuw %"class.icu_77::SkeletonFields", ptr %5, i32 0, i32 0
  %8 = getelementptr inbounds [16 x i8], ptr %7, i64 0, i64 0
  %9 = load ptr, ptr %4, align 8, !tbaa !208
  %10 = getelementptr inbounds nuw %"class.icu_77::SkeletonFields", ptr %9, i32 0, i32 0
  %11 = getelementptr inbounds [16 x i8], ptr %10, i64 0, i64 0
  call void @llvm.memcpy.p0.p0.i64(ptr align 1 %8, ptr align 1 %11, i64 16, i1 false)
  br label %12

12:                                               ; preds = %6
  br label %13

13:                                               ; preds = %12
  %14 = getelementptr inbounds nuw %"class.icu_77::SkeletonFields", ptr %5, i32 0, i32 1
  %15 = getelementptr inbounds [16 x i8], ptr %14, i64 0, i64 0
  %16 = load ptr, ptr %4, align 8, !tbaa !208
  %17 = getelementptr inbounds nuw %"class.icu_77::SkeletonFields", ptr %16, i32 0, i32 1
  %18 = getelementptr inbounds [16 x i8], ptr %17, i64 0, i64 0
  call void @llvm.memcpy.p0.p0.i64(ptr align 1 %15, ptr align 1 %18, i64 16, i1 false)
  br label %19

19:                                               ; preds = %13
  ret void
}

; Function Attrs: mustprogress nounwind uwtable
define void @_ZN6icu_7711PtnSkeleton8copyFromERKS0_(ptr noundef nonnull align 8 dereferenceable(137) %0, ptr noundef nonnull align 8 dereferenceable(137) %1) #0 align 2 {
  %3 = alloca ptr, align 8
  %4 = alloca ptr, align 8
  store ptr %0, ptr %3, align 8, !tbaa !72
  store ptr %1, ptr %4, align 8, !tbaa !72
  %5 = load ptr, ptr %3, align 8
  br label %6

6:                                                ; preds = %2
  %7 = getelementptr inbounds nuw %"class.icu_77::PtnSkeleton", ptr %5, i32 0, i32 1
  %8 = getelementptr inbounds [16 x i32], ptr %7, i64 0, i64 0
  %9 = load ptr, ptr %4, align 8, !tbaa !72
  %10 = getelementptr inbounds nuw %"class.icu_77::PtnSkeleton", ptr %9, i32 0, i32 1
  %11 = getelementptr inbounds [16 x i32], ptr %10, i64 0, i64 0
  call void @llvm.memcpy.p0.p0.i64(ptr align 8 %8, ptr align 8 %11, i64 64, i1 false)
  br label %12

12:                                               ; preds = %6
  %13 = getelementptr inbounds nuw %"class.icu_77::PtnSkeleton", ptr %5, i32 0, i32 2
  %14 = load ptr, ptr %4, align 8, !tbaa !72
  %15 = getelementptr inbounds nuw %"class.icu_77::PtnSkeleton", ptr %14, i32 0, i32 2
  call void @_ZN6icu_7714SkeletonFields8copyFromERKS0_(ptr noundef nonnull align 1 dereferenceable(32) %13, ptr noundef nonnull align 1 dereferenceable(32) %15)
  %16 = getelementptr inbounds nuw %"class.icu_77::PtnSkeleton", ptr %5, i32 0, i32 3
  %17 = load ptr, ptr %4, align 8, !tbaa !72
  %18 = getelementptr inbounds nuw %"class.icu_77::PtnSkeleton", ptr %17, i32 0, i32 3
  call void @_ZN6icu_7714SkeletonFields8copyFromERKS0_(ptr noundef nonnull align 1 dereferenceable(32) %16, ptr noundef nonnull align 1 dereferenceable(32) %18)
  %19 = load ptr, ptr %4, align 8, !tbaa !72
  %20 = getelementptr inbounds nuw %"class.icu_77::PtnSkeleton", ptr %19, i32 0, i32 4
  %21 = load i8, ptr %20, align 8, !tbaa !133
  %22 = getelementptr inbounds nuw %"class.icu_77::PtnSkeleton", ptr %5, i32 0, i32 4
  store i8 %21, ptr %22, align 8, !tbaa !133
  ret void
}

; Function Attrs: mustprogress uwtable
define void @_ZN6icu_7715DateTimeMatcher8copyFromERKNS_11PtnSkeletonE(ptr noundef nonnull align 8 dereferenceable(152) %0, ptr noundef nonnull align 8 dereferenceable(137) %1) #1 align 2 {
  %3 = alloca ptr, align 8
  %4 = alloca ptr, align 8
  store ptr %0, ptr %3, align 8, !tbaa !71
  store ptr %1, ptr %4, align 8, !tbaa !72
  %5 = load ptr, ptr %3, align 8
  %6 = getelementptr inbounds nuw %"class.icu_77::DateTimeMatcher", ptr %5, i32 0, i32 1
  %7 = load ptr, ptr %4, align 8, !tbaa !72
  call void @_ZN6icu_7711PtnSkeleton8copyFromERKS0_(ptr noundef nonnull align 8 dereferenceable(137) %6, ptr noundef nonnull align 8 dereferenceable(137) %7)
  ret void
}

; Function Attrs: mustprogress uwtable
define noundef nonnull align 8 dereferenceable(152) ptr @_ZN6icu_7715DateTimeMatcheraSERKS0_(ptr noundef nonnull align 8 dereferenceable(152) %0, ptr noundef nonnull align 8 dereferenceable(152) %1) #1 align 2 {
  %3 = alloca ptr, align 8
  %4 = alloca ptr, align 8
  store ptr %0, ptr %3, align 8, !tbaa !71
  store ptr %1, ptr %4, align 8, !tbaa !71
  %5 = load ptr, ptr %3, align 8
  %6 = load ptr, ptr %4, align 8, !tbaa !71
  %7 = getelementptr inbounds nuw %"class.icu_77::DateTimeMatcher", ptr %6, i32 0, i32 1
  call void @_ZN6icu_7715DateTimeMatcher8copyFromERKNS_11PtnSkeletonE(ptr noundef nonnull align 8 dereferenceable(152) %5, ptr noundef nonnull align 8 dereferenceable(137) %7)
  ret ptr %5
}