; Function Attrs: mustprogress nofree norecurse nosync nounwind willreturn memory(argmem: readwrite) uwtable
define noundef nonnull align 8 dereferenceable(152) ptr @_ZN6icu_7715DateTimeMatcheraSERKS0_(ptr noundef nonnull returned writeonly align 8 dereferenceable(152) initializes((16, 145)) %0, ptr noundef nonnull readonly align 8 captures(none) dereferenceable(152) %1) local_unnamed_addr #13 align 2 {
  %3 = getelementptr inbounds nuw i8, ptr %0, i64 16
  %4 = getelementptr inbounds nuw i8, ptr %1, i64 16
  tail call void @llvm.memcpy.p0.p0.i64(ptr noundef nonnull align 8 dereferenceable(64) %3, ptr noundef nonnull readonly align 8 dereferenceable(64) %4, i64 64, i1 false)
  %5 = getelementptr inbounds nuw i8, ptr %0, i64 80
  %6 = getelementptr inbounds nuw i8, ptr %1, i64 80
  tail call void @llvm.memcpy.p0.p0.i64(ptr noundef nonnull align 8 dereferenceable(32) %5, ptr noundef nonnull readonly align 8 dereferenceable(32) %6, i64 16, i1 false)
  %7 = getelementptr inbounds nuw i8, ptr %0, i64 96
  %8 = getelementptr inbounds nuw i8, ptr %1, i64 96
  tail call void @llvm.memcpy.p0.p0.i64(ptr noundef nonnull align 8 dereferenceable(16) %7, ptr noundef nonnull readonly align 8 dereferenceable(16) %8, i64 16, i1 false)
  %9 = getelementptr inbounds nuw i8, ptr %0, i64 112
  %10 = getelementptr inbounds nuw i8, ptr %1, i64 112
  tail call void @llvm.memcpy.p0.p0.i64(ptr noundef nonnull align 8 dereferenceable(32) %9, ptr noundef nonnull readonly align 8 dereferenceable(32) %10, i64 16, i1 false)
  %11 = getelementptr inbounds nuw i8, ptr %0, i64 128
  %12 = getelementptr inbounds nuw i8, ptr %1, i64 128
  tail call void @llvm.memcpy.p0.p0.i64(ptr noundef nonnull align 8 dereferenceable(16) %11, ptr noundef nonnull readonly align 8 dereferenceable(16) %12, i64 16, i1 false)
  %13 = getelementptr inbounds nuw i8, ptr %1, i64 144
  %14 = load i8, ptr %13, align 8, !tbaa !42
  %15 = getelementptr inbounds nuw i8, ptr %0, i64 144
  store i8 %14, ptr %15, align 8, !tbaa !42
  ret ptr %0
}